target datalayout = "e-m:e-p270:32:32-p271:32:32-p272:64:64-i64:64-i128:128-f80:128-n8:16:32:64-S128"
target triple = "x86_64-unknown-linux-gnu"

%struct.QGuestAllocator = type { i32, i64, i64, i32, ptr, ptr }
%struct.MemBlock = type { %union.anon, i64, i64 }
%union.anon = type { %struct.QTailQLink }
%struct.QTailQLink = type { ptr, ptr }

@.str.1 = private unnamed_addr constant [43 x i8] c"../qemu/tests/qtest/libqos/libqos-malloc.c\00", align 1
@__func__.migrate_allocator = private unnamed_addr constant [18 x i8] c"migrate_allocator\00", align 1
@.str.7 = private unnamed_addr constant [25 x i8] c"src->start == dst->start\00", align 1
@.str.8 = private unnamed_addr constant [3 x i8] c"==\00", align 1
@.str.9 = private unnamed_addr constant [21 x i8] c"src->end == dst->end\00", align 1

; Function Attrs: nounwind sspstrong uwtable
define internal ptr @mlist_new(i64 noundef %addr, i64 noundef %size) #0 {
entry:
  %retval = alloca ptr, align 8
  %addr.addr = alloca i64, align 8
  %size.addr = alloca i64, align 8
  %block = alloca ptr, align 8
  store i64 %addr, ptr %addr.addr, align 8
  store i64 %size, ptr %size.addr, align 8
  %0 = load i64, ptr %size.addr, align 8
  %tobool = icmp ne i64 %0, 0
  br i1 %tobool, label %if.end, label %if.then

if.then:                                          ; preds = %entry
  store ptr null, ptr %retval, align 8
  br label %return

if.end:                                           ; preds = %entry
  %call = call noalias ptr @g_malloc0_n(i64 noundef 1, i64 noundef 32) #5
  store ptr %call, ptr %block, align 8
  %1 = load i64, ptr %addr.addr, align 8
  %2 = load ptr, ptr %block, align 8
  %addr1 = getelementptr inbounds %struct.MemBlock, ptr %2, i32 0, i32 2
  store i64 %1, ptr %addr1, align 8
  %3 = load i64, ptr %size.addr, align 8
  %4 = load ptr, ptr %block, align 8
  %size2 = getelementptr inbounds %struct.MemBlock, ptr %4, i32 0, i32 1
  store i64 %3, ptr %size2, align 8
  %5 = load ptr, ptr %block, align 8
  store ptr %5, ptr %retval, align 8
  br label %return

return:                                           ; preds = %if.end, %if.then
  %6 = load ptr, ptr %retval, align 8
  ret ptr %6
}

; Function Attrs: nounwind sspstrong uwtable
define dso_local void @migrate_allocator(ptr noundef %src, ptr noundef %dst) #0 {
entry:
  %src.addr = alloca ptr, align 8
  %dst.addr = alloca ptr, align 8
  %node = alloca ptr, align 8
  %tmp = alloca ptr, align 8
  %tmpused = alloca ptr, align 8
  %tmpfree = alloca ptr, align 8
  %__n1 = alloca i64, align 8
  %__n2 = alloca i64, align 8
  %__n14 = alloca i64, align 8
  %__n25 = alloca i64, align 8
  store ptr %src, ptr %src.addr, align 8
  store ptr %dst, ptr %dst.addr, align 8
  br label %do.body

do.body:                                          ; preds = %entry
  %0 = load ptr, ptr %src.addr, align 8
  %start = getelementptr inbounds %struct.QGuestAllocator, ptr %0, i32 0, i32 1
  %1 = load i64, ptr %start, align 8
  store i64 %1, ptr %__n1, align 8
  %2 = load ptr, ptr %dst.addr, align 8
  %start1 = getelementptr inbounds %struct.QGuestAllocator, ptr %2, i32 0, i32 1
  %3 = load i64, ptr %start1, align 8
  store i64 %3, ptr %__n2, align 8
  %4 = load i64, ptr %__n1, align 8
  %5 = load i64, ptr %__n2, align 8
  %cmp = icmp eq i64 %4, %5
  br i1 %cmp, label %if.then, label %if.else

if.then:                                          ; preds = %do.body
  br label %if.end

if.else:                                          ; preds = %do.body
  %6 = load i64, ptr %__n1, align 8
  %conv = uitofp i64 %6 to x86_fp80
  %7 = load i64, ptr %__n2, align 8
  %conv2 = uitofp i64 %7 to x86_fp80
  call void @g_assertion_message_cmpnum(ptr noundef null, ptr noundef @.str.1, i32 noundef 320, ptr noundef @__func__.migrate_allocator, ptr noundef @.str.7, x86_fp80 noundef %conv, ptr noundef @.str.8, x86_fp80 noundef %conv2, i8 noundef signext 120)
  br label %if.end

if.end:                                           ; preds = %if.else, %if.then
  br label %do.end

do.end:                                           ; preds = %if.end
  br label %do.body3

do.body3:                                         ; preds = %do.end
  %8 = load ptr, ptr %src.addr, align 8
  %end = getelementptr inbounds %struct.QGuestAllocator, ptr %8, i32 0, i32 2
  %9 = load i64, ptr %end, align 8
  store i64 %9, ptr %__n14, align 8
  %10 = load ptr, ptr %dst.addr, align 8
  %end6 = getelementptr inbounds %struct.QGuestAllocator, ptr %10, i32 0, i32 2
  %11 = load i64, ptr %end6, align 8
  store i64 %11, ptr %__n25, align 8
  %12 = load i64, ptr %__n14, align 8
  %13 = load i64, ptr %__n25, align 8
  %cmp7 = icmp eq i64 %12, %13
  br i1 %cmp7, label %if.then9, label %if.else10

if.then9:                                         ; preds = %do.body3
  br label %if.end13

if.else10:                                        ; preds = %do.body3
  %14 = load i64, ptr %__n14, align 8
  %conv11 = uitofp i64 %14 to x86_fp80
  %15 = load i64, ptr %__n25, align 8
  %conv12 = uitofp i64 %15 to x86_fp80
  call void @g_assertion_message_cmpnum(ptr noundef null, ptr noundef @.str.1, i32 noundef 321, ptr noundef @__func__.migrate_allocator, ptr noundef @.str.9, x86_fp80 noundef %conv11, ptr noundef @.str.8, x86_fp80 noundef %conv12, i8 noundef signext 120)
  br label %if.end13

if.end13:                                         ; preds = %if.else10, %if.then9
  br label %do.end14

do.end14:                                         ; preds = %if.end13
  %16 = load ptr, ptr %dst.addr, align 8
  %used = getelementptr inbounds %struct.QGuestAllocator, ptr %16, i32 0, i32 4
  %17 = load ptr, ptr %used, align 8
  %18 = load ptr, ptr %17, align 8
  store ptr %18, ptr %node, align 8
  br label %for.cond

for.cond:                                         ; preds = %for.inc, %do.end14
  %19 = load ptr, ptr %node, align 8
  %tobool = icmp ne ptr %19, null
  br i1 %tobool, label %land.rhs, label %land.end

land.rhs:                                         ; preds = %for.cond
  %20 = load ptr, ptr %node, align 8
  %MLIST_ENTNAME = getelementptr inbounds %struct.MemBlock, ptr %20, i32 0, i32 0
  %21 = load ptr, ptr %MLIST_ENTNAME, align 8
  store ptr %21, ptr %tmp, align 8
  br label %land.end

land.end:                                         ; preds = %land.rhs, %for.cond
  %22 = phi i1 [ false, %for.cond ], [ true, %land.rhs ]
  br i1 %22, label %for.body, label %for.end

for.body:                                         ; preds = %land.end
  %23 = load ptr, ptr %node, align 8
  call void @g_free(ptr noundef %23)
  br label %for.inc

for.inc:                                          ; preds = %for.body
  %24 = load ptr, ptr %tmp, align 8
  store ptr %24, ptr %node, align 8
  br label %for.cond, !llvm.loop !10

for.end:                                          ; preds = %land.end
  %25 = load ptr, ptr %dst.addr, align 8
  %free = getelementptr inbounds %struct.QGuestAllocator, ptr %25, i32 0, i32 5
  %26 = load ptr, ptr %free, align 8
  %27 = load ptr, ptr %26, align 8
  store ptr %27, ptr %node, align 8
  br label %for.cond15

for.cond15:                                       ; preds = %for.inc21, %for.end
  %28 = load ptr, ptr %node, align 8
  %tobool16 = icmp ne ptr %28, null
  br i1 %tobool16, label %land.rhs17, label %land.end19

land.rhs17:                                       ; preds = %for.cond15
  %29 = load ptr, ptr %node, align 8
  %MLIST_ENTNAME18 = getelementptr inbounds %struct.MemBlock, ptr %29, i32 0, i32 0
  %30 = load ptr, ptr %MLIST_ENTNAME18, align 8
  store ptr %30, ptr %tmp, align 8
  br label %land.end19

land.end19:                                       ; preds = %land.rhs17, %for.cond15
  %31 = phi i1 [ false, %for.cond15 ], [ true, %land.rhs17 ]
  br i1 %31, label %for.body20, label %for.end22

for.body20:                                       ; preds = %land.end19
  %32 = load ptr, ptr %node, align 8
  call void @g_free(ptr noundef %32)
  br label %for.inc21

for.inc21:                                        ; preds = %for.body20
  %33 = load ptr, ptr %tmp, align 8
  store ptr %33, ptr %node, align 8
  br label %for.cond15, !llvm.loop !11

for.end22:                                        ; preds = %land.end19
  %34 = load ptr, ptr %dst.addr, align 8
  %used23 = getelementptr inbounds %struct.QGuestAllocator, ptr %34, i32 0, i32 4
  %35 = load ptr, ptr %used23, align 8
  store ptr %35, ptr %tmpused, align 8
  %36 = load ptr, ptr %dst.addr, align 8
  %free24 = getelementptr inbounds %struct.QGuestAllocator, ptr %36, i32 0, i32 5
  %37 = load ptr, ptr %free24, align 8
  store ptr %37, ptr %tmpfree, align 8
  %38 = load ptr, ptr %src.addr, align 8
  %used25 = getelementptr inbounds %struct.QGuestAllocator, ptr %38, i32 0, i32 4
  %39 = load ptr, ptr %used25, align 8
  %40 = load ptr, ptr %dst.addr, align 8
  %used26 = getelementptr inbounds %struct.QGuestAllocator, ptr %40, i32 0, i32 4
  store ptr %39, ptr %used26, align 8
  %41 = load ptr, ptr %src.addr, align 8
  %free27 = getelementptr inbounds %struct.QGuestAllocator, ptr %41, i32 0, i32 5
  %42 = load ptr, ptr %free27, align 8
  %43 = load ptr, ptr %dst.addr, align 8
  %free28 = getelementptr inbounds %struct.QGuestAllocator, ptr %43, i32 0, i32 5
  store ptr %42, ptr %free28, align 8
  %44 = load ptr, ptr %tmpused, align 8
  %45 = load ptr, ptr %src.addr, align 8
  %used29 = getelementptr inbounds %struct.QGuestAllocator, ptr %45, i32 0, i32 4
  store ptr %44, ptr %used29, align 8
  %46 = load ptr, ptr %tmpfree, align 8
  %47 = load ptr, ptr %src.addr, align 8
  %free30 = getelementptr inbounds %struct.QGuestAllocator, ptr %47, i32 0, i32 5
  store ptr %46, ptr %free30, align 8
  br label %do.body31

do.body31:                                        ; preds = %for.end22
  %48 = load ptr, ptr %src.addr, align 8
  %used32 = getelementptr inbounds %struct.QGuestAllocator, ptr %48, i32 0, i32 4
  %49 = load ptr, ptr %used32, align 8
  store ptr null, ptr %49, align 8
  %50 = load ptr, ptr %src.addr, align 8
  %used33 = getelementptr inbounds %struct.QGuestAllocator, ptr %50, i32 0, i32 4
  %51 = load ptr, ptr %used33, align 8
  %52 = load ptr, ptr %src.addr, align 8
  %used34 = getelementptr inbounds %struct.QGuestAllocator, ptr %52, i32 0, i32 4
  %53 = load ptr, ptr %used34, align 8
  %tql_prev = getelementptr inbounds %struct.QTailQLink, ptr %53, i32 0, i32 1
  store ptr %51, ptr %tql_prev, align 8
  br label %do.end35

do.end35:                                         ; preds = %do.body31
  br label %do.body36

do.body36:                                        ; preds = %do.end35
  %54 = load ptr, ptr %src.addr, align 8
  %free37 = getelementptr inbounds %struct.QGuestAllocator, ptr %54, i32 0, i32 5
  %55 = load ptr, ptr %free37, align 8
  store ptr null, ptr %55, align 8
  %56 = load ptr, ptr %src.addr, align 8
  %free38 = getelementptr inbounds %struct.QGuestAllocator, ptr %56, i32 0, i32 5
  %57 = load ptr, ptr %free38, align 8
  %58 = load ptr, ptr %src.addr, align 8
  %free39 = getelementptr inbounds %struct.QGuestAllocator, ptr %58, i32 0, i32 5
  %59 = load ptr, ptr %free39, align 8
  %tql_prev40 = getelementptr inbounds %struct.QTailQLink, ptr %59, i32 0, i32 1
  store ptr %57, ptr %tql_prev40, align 8
  br label %do.end41

do.end41:                                         ; preds = %do.body36
  %60 = load ptr, ptr %src.addr, align 8
  %start42 = getelementptr inbounds %struct.QGuestAllocator, ptr %60, i32 0, i32 1
  %61 = load i64, ptr %start42, align 8
  %62 = load ptr, ptr %src.addr, align 8
  %end43 = getelementptr inbounds %struct.QGuestAllocator, ptr %62, i32 0, i32 2
  %63 = load i64, ptr %end43, align 8
  %64 = load ptr, ptr %src.addr, align 8
  %start44 = getelementptr inbounds %struct.QGuestAllocator, ptr %64, i32 0, i32 1
  %65 = load i64, ptr %start44, align 8
  %sub = sub i64 %63, %65
  %call = call ptr @mlist_new(i64 noundef %61, i64 noundef %sub)
  store ptr %call, ptr %node, align 8
  br label %do.body45

do.body45:                                        ; preds = %do.end41
  %66 = load ptr, ptr %src.addr, align 8
  %free46 = getelementptr inbounds %struct.QGuestAllocator, ptr %66, i32 0, i32 5
  %67 = load ptr, ptr %free46, align 8
  %68 = load ptr, ptr %67, align 8
  %69 = load ptr, ptr %node, align 8
  %MLIST_ENTNAME47 = getelementptr inbounds %struct.MemBlock, ptr %69, i32 0, i32 0
  store ptr %68, ptr %MLIST_ENTNAME47, align 8
  %cmp48 = icmp ne ptr %68, null
  br i1 %cmp48, label %if.then50, label %if.else55

if.then50:                                        ; preds = %do.body45
  %70 = load ptr, ptr %node, align 8
  %MLIST_ENTNAME51 = getelementptr inbounds %struct.MemBlock, ptr %70, i32 0, i32 0
  %71 = load ptr, ptr %src.addr, align 8
  %free52 = getelementptr inbounds %struct.QGuestAllocator, ptr %71, i32 0, i32 5
  %72 = load ptr, ptr %free52, align 8
  %73 = load ptr, ptr %72, align 8
  %MLIST_ENTNAME53 = getelementptr inbounds %struct.MemBlock, ptr %73, i32 0, i32 0
  %tql_prev54 = getelementptr inbounds %struct.QTailQLink, ptr %MLIST_ENTNAME53, i32 0, i32 1
  store ptr %MLIST_ENTNAME51, ptr %tql_prev54, align 8
  br label %if.end59

if.else55:                                        ; preds = %do.body45
  %74 = load ptr, ptr %node, align 8
  %MLIST_ENTNAME56 = getelementptr inbounds %struct.MemBlock, ptr %74, i32 0, i32 0
  %75 = load ptr, ptr %src.addr, align 8
  %free57 = getelementptr inbounds %struct.QGuestAllocator, ptr %75, i32 0, i32 5
  %76 = load ptr, ptr %free57, align 8
  %tql_prev58 = getelementptr inbounds %struct.QTailQLink, ptr %76, i32 0, i32 1
  store ptr %MLIST_ENTNAME56, ptr %tql_prev58, align 8
  br label %if.end59

if.end59:                                         ; preds = %if.else55, %if.then50
  %77 = load ptr, ptr %node, align 8
  %78 = load ptr, ptr %src.addr, align 8
  %free60 = getelementptr inbounds %struct.QGuestAllocator, ptr %78, i32 0, i32 5
  %79 = load ptr, ptr %free60, align 8
  store ptr %77, ptr %79, align 8
  %80 = load ptr, ptr %src.addr, align 8
  %free61 = getelementptr inbounds %struct.QGuestAllocator, ptr %80, i32 0, i32 5
  %81 = load ptr, ptr %free61, align 8
  %82 = load ptr, ptr %node, align 8
  %MLIST_ENTNAME62 = getelementptr inbounds %struct.MemBlock, ptr %82, i32 0, i32 0
  %tql_prev63 = getelementptr inbounds %struct.QTailQLink, ptr %MLIST_ENTNAME62, i32 0, i32 1
  store ptr %81, ptr %tql_prev63, align 8
  br label %do.end64

do.end64:                                         ; preds = %if.end59
  ret void
}