; Function Attrs: nounwind sspstrong uwtable
define dso_local void @migrate_allocator(ptr noundef captures(none) %src, ptr noundef captures(none) %dst) local_unnamed_addr #0 {
entry:
  %start = getelementptr inbounds nuw i8, ptr %src, i64 8
  %0 = load i64, ptr %start, align 8
  %start1 = getelementptr inbounds nuw i8, ptr %dst, i64 8
  %1 = load i64, ptr %start1, align 8
  %cmp = icmp eq i64 %0, %1
  br i1 %cmp, label %do.body3, label %if.else

if.else:                                          ; preds = %entry
  %conv = uitofp i64 %0 to x86_fp80
  %conv2 = uitofp i64 %1 to x86_fp80
  tail call void @g_assertion_message_cmpnum(ptr noundef null, ptr noundef nonnull @.str.1, i32 noundef 320, ptr noundef nonnull @__func__.migrate_allocator, ptr noundef nonnull @.str.7, x86_fp80 noundef %conv, ptr noundef nonnull @.str.8, x86_fp80 noundef %conv2, i8 noundef signext 120) #11
  br label %do.body3

do.body3:                                         ; preds = %entry, %if.else
  %end = getelementptr inbounds nuw i8, ptr %src, i64 16
  %2 = load i64, ptr %end, align 8
  %end6 = getelementptr inbounds nuw i8, ptr %dst, i64 16
  %3 = load i64, ptr %end6, align 8
  %cmp7 = icmp eq i64 %2, %3
  br i1 %cmp7, label %do.end14, label %if.else10

if.else10:                                        ; preds = %do.body3
  %conv11 = uitofp i64 %2 to x86_fp80
  %conv12 = uitofp i64 %3 to x86_fp80
  tail call void @g_assertion_message_cmpnum(ptr noundef null, ptr noundef nonnull @.str.1, i32 noundef 321, ptr noundef nonnull @__func__.migrate_allocator, ptr noundef nonnull @.str.9, x86_fp80 noundef %conv11, ptr noundef nonnull @.str.8, x86_fp80 noundef %conv12, i8 noundef signext 120) #11
  br label %do.end14

do.end14:                                         ; preds = %if.else10, %do.body3
  %used = getelementptr inbounds nuw i8, ptr %dst, i64 32
  %4 = load ptr, ptr %used, align 8
  %5 = load ptr, ptr %4, align 8
  %tobool.not45 = icmp eq ptr %5, null
  br i1 %tobool.not45, label %for.end, label %land.rhs

land.rhs:                                         ; preds = %do.end14, %land.rhs
  %node.046 = phi ptr [ %6, %land.rhs ], [ %5, %do.end14 ]
  %6 = load ptr, ptr %node.046, align 8
  tail call void @g_free(ptr noundef nonnull %node.046) #11
  %tobool.not = icmp eq ptr %6, null
  br i1 %tobool.not, label %for.end, label %land.rhs, !llvm.loop !14

for.end:                                          ; preds = %land.rhs, %do.end14
  %free = getelementptr inbounds nuw i8, ptr %dst, i64 40
  %7 = load ptr, ptr %free, align 8
  %8 = load ptr, ptr %7, align 8
  %tobool16.not47 = icmp eq ptr %8, null
  br i1 %tobool16.not47, label %for.end22, label %land.rhs17

land.rhs17:                                       ; preds = %for.end, %land.rhs17
  %node.148 = phi ptr [ %9, %land.rhs17 ], [ %8, %for.end ]
  %9 = load ptr, ptr %node.148, align 8
  tail call void @g_free(ptr noundef nonnull %node.148) #11
  %tobool16.not = icmp eq ptr %9, null
  br i1 %tobool16.not, label %for.end22.loopexit, label %land.rhs17, !llvm.loop !15

for.end22.loopexit:                               ; preds = %land.rhs17
  %.pre = load ptr, ptr %free, align 8
  br label %for.end22

for.end22:                                        ; preds = %for.end22.loopexit, %for.end
  %10 = phi ptr [ %.pre, %for.end22.loopexit ], [ %7, %for.end ]
  %11 = load ptr, ptr %used, align 8
  %used25 = getelementptr inbounds nuw i8, ptr %src, i64 32
  %12 = load ptr, ptr %used25, align 8
  store ptr %12, ptr %used, align 8
  %free27 = getelementptr inbounds nuw i8, ptr %src, i64 40
  %13 = load ptr, ptr %free27, align 8
  store ptr %13, ptr %free, align 8
  store ptr %11, ptr %used25, align 8
  store ptr %10, ptr %free27, align 8
  store ptr null, ptr %11, align 8
  %14 = load ptr, ptr %used25, align 8
  %tql_prev = getelementptr inbounds nuw i8, ptr %14, i64 8
  store ptr %14, ptr %tql_prev, align 8
  %15 = load ptr, ptr %free27, align 8
  store ptr null, ptr %15, align 8
  %16 = load ptr, ptr %free27, align 8
  %tql_prev40 = getelementptr inbounds nuw i8, ptr %16, i64 8
  store ptr %16, ptr %tql_prev40, align 8
  %17 = load i64, ptr %start, align 8
  %18 = load i64, ptr %end, align 8
  %tobool.not.i = icmp eq i64 %18, %17
  br i1 %tobool.not.i, label %mlist_new.exit, label %if.end.i

if.end.i:                                         ; preds = %for.end22
  %sub = sub i64 %18, %17
  %call.i = tail call noalias dereferenceable_or_null(32) ptr @g_malloc0_n(i64 noundef 1, i64 noundef 32) #12
  %addr1.i = getelementptr inbounds nuw i8, ptr %call.i, i64 24
  store i64 %17, ptr %addr1.i, align 8
  %size2.i = getelementptr inbounds nuw i8, ptr %call.i, i64 16
  store i64 %sub, ptr %size2.i, align 8
  %.pre49 = load ptr, ptr %free27, align 8
  br label %mlist_new.exit

mlist_new.exit:                                   ; preds = %for.end22, %if.end.i
  %19 = phi ptr [ %.pre49, %if.end.i ], [ %16, %for.end22 ]
  %retval.0.i = phi ptr [ %call.i, %if.end.i ], [ null, %for.end22 ]
  %20 = load ptr, ptr %19, align 8
  store ptr %20, ptr %retval.0.i, align 8
  %cmp48.not = icmp eq ptr %20, null
  %. = select i1 %cmp48.not, ptr %19, ptr %20
  %tql_prev58 = getelementptr inbounds nuw i8, ptr %., i64 8
  store ptr %retval.0.i, ptr %tql_prev58, align 8
  %21 = load ptr, ptr %free27, align 8
  store ptr %retval.0.i, ptr %21, align 8
  %22 = load ptr, ptr %free27, align 8
  %tql_prev63 = getelementptr inbounds nuw i8, ptr %retval.0.i, i64 8
  store ptr %22, ptr %tql_prev63, align 8
  ret void
}